(lp0
(i__main__
StructuralMeasures
p1
(dp2
S'sub_id'
p3
I1
sS'performance_and_reliability_criteria'
p4
(lp5
I10
aI8
aI8
aI6
aI10
aI7
aI1
asS'category_id'
p6
I1
sS'name'
p7
S'HydroseedingTurfingAndTreesBushes'
p8
sS'tech_criteria_AtoF'
p9
(lp10
(lp11
I0
aI0
aI8
aI0
aI6
aa(lp12
I8
aI7
aI2
aa(lp13
I8
aI4
aI0
aI0
aI0
aa(lp14
I2
aI5
aI8
aI10
aa(lp15
I8
aI8
aI5
aI5
aa(lp16
I7
aI5
aI3
aI0
aI0
aI4
aasba(i__main__
StructuralMeasures
p17
(dp18
g3
I2
sg4
(lp19
I10
aI8
aI8
aI6
aI10
aI7
aI1
asg6
I1
sg7
S'FascinesBrush'
p20
sg9
(lp21
(lp22
I0
aI0
aI8
aI0
aI6
aa(lp23
I8
aI8
aI0
aa(lp24
I10
aI4
aI0
aI0
aI0
aa(lp25
I2
aI6
aI8
aI10
aa(lp26
I8
aI8
aI6
aI4
aa(lp27
I8
aI7
aI6
aI6
aI0
aI6
aasba(i__main__
StructuralMeasures
p28
(dp29
g3
I3
sg4
(lp30
I10
aI8
aI8
aI8
aI10
aI8
aI1
asg6
I1
sg7
S'Geosynthetics'
p31
sg9
(lp32
(lp33
I0
aI0
aI7
aI0
aI0
aa(lp34
I8
aI6
aI0
aa(lp35
I8
aI4
aI0
aI0
aI0
aa(lp36
I4
aI6
aI8
aI10
aa(lp37
I8
aI8
aI8
aI8
aa(lp38
I8
aI8
aI6
aI6
aI2
aI6
aasba(i__main__
StructuralMeasures
p39
(dp40
g3
I4
sg4
(lp41
I10
aI8
aI8
aI8
aI10
aI8
aI1
asg6
I1
sg7
S'SubstitutionDrainageBlanket'
p42
sg9
(lp43
(lp44
I0
aI0
aI7
aI0
aI6
aa(lp45
I8
aI4
aI0
aa(lp46
I10
aI4
aI0
aI0
aI0
aa(lp47
I6
aI8
aI10
aI10
aa(lp48
I8
aI8
aI4
aI2
aa(lp49
I8
aI8
aI4
aI0
aI0
aI0
aasba(i__main__
StructuralMeasures
p50
(dp51
g3
I5
sg4
(lp52
I10
aI8
aI8
aI8
aI10
aI8
aI1
asg6
I1
sg7
S'BeachReplenishmentRipRap'
p53
sg9
(lp54
(lp55
I0
aI0
aI7
aI0
aI0
aa(lp56
I8
aI8
aI4
aa(lp57
I10
aI4
aI0
aI0
aI0
aa(lp58
I6
aI8
aI10
aI10
aa(lp59
I8
aI8
aI4
aI2
aa(lp60
I6
aI6
aI6
aI7
aI8
aI7
aasba(i__main__
StructuralMeasures
p61
(dp62
g3
I6
sg4
(lp63
I10
aI8
aI8
aI8
aI10
aI8
aI1
asg6
I1
sg7
S'Dentition'
p64
sg9
(lp65
(lp66
I8
aI6
aI0
aI0
aI0
aa(lp67
I0
aI0
aI8
aa(lp68
I8
aI0
aI0
aI0
aI0
aa(lp69
I8
aI8
aI8
aI8
aa(lp70
I7
aI8
aI8
aI8
aa(lp71
I6
aI6
aI8
aI4
aI2
aI0
aasba(i__main__
StructuralMeasures
p72
(dp73
g3
I1
sg4
(lp74
I10
aI8
aI10
aI8
aI5
aI8
aI1
asg6
I2
sg7
S'RemovalOfActualOrPotentiallyUnstableSoilRockMass'
p75
sg9
(lp76
(lp77
I4
aI4
aI6
aI0
aI2
aa(lp78
I8
aI8
aI4
aa(lp79
I10
aI6
aI4
aI2
aI0
aa(lp80
I2
aI6
aI8
aI8
aa(lp81
I2
aI4
aI8
aI6
aa(lp82
I6
aI0
aI0
aI0
aI0
aI0
aasba(i__main__
StructuralMeasures
p83
(dp84
g3
I2
sg4
(lp85
I8
aI8
aI10
aI4
aI5
aI8
aI1
asg6
I2
sg7
S'RemovalOfLooseOrPotentiallyUnstableBlocksBouldersScaling'
p86
sg9
(lp87
(lp88
I8
aI6
aI0
aI0
aI0
aa(lp89
I2
aI0
aI8
aa(lp90
I8
aI2
aI0
aI0
aI0
aa(lp91
I0
aI0
aI8
aI8
aa(lp92
I0
aI2
aI8
aI10
aa(lp93
I6
aI8
aI4
aI0
aI0
aI0
aasba(i__main__
StructuralMeasures
p94
(dp95
g3
I3
sg4
(lp96
I8
aI6
aI10
aI8
aI6
aI8
aI1
asg6
I2
sg7
S'RemovalOfMaterialFromDrivingArea'
p97
sg9
(lp98
(lp99
I0
aI2
aI8
aI0
aI0
aa(lp100
I8
aI8
aI4
aa(lp101
I8
aI8
aI8
aI6
aI6
aa(lp102
I2
aI8
aI8
aI8
aa(lp103
I4
aI6
aI8
aI8
aa(lp104
I6
aI6
aI4
aI2
aI0
aI0
aasba(i__main__
StructuralMeasures
p105
(dp106
g3
I4
sg4
(lp107
I6
aI6
aI10
aI6
aI8
aI8
aI1
asg6
I2
sg7
S'SubstitutionOfMaterialInDrivingAreaWithLightweightFill'
p108
sg9
(lp109
(lp110
I0
aI0
aI6
aI0
aI0
aa(lp111
I8
aI6
aI2
aa(lp112
I6
aI6
aI6
aI4
aI0
aa(lp113
I0
aI2
aI6
aI8
aa(lp114
I6
aI6
aI8
aI8
aa(lp115
I6
aI6
aI6
aI2
aI0
aI0
aasba(i__main__
StructuralMeasures
p116
(dp117
g3
I5
sg4
(lp118
I10
aI10
aI8
aI8
aI8
aI8
aI1
asg6
I2
sg7
S'AdditionOfMaterialToTheAreaMaintainingStability'
p119
sg9
(lp120
(lp121
I0
aI2
aI8
aI0
aI0
aa(lp122
I8
aI6
aI4
aa(lp123
I6
aI8
aI8
aI6
aI4
aa(lp124
I2
aI8
aI8
aI8
aa(lp125
I8
aI8
aI8
aI8
aa(lp126
I6
aI6
aI4
aI2
aI0
aI0
aasba(i__main__
StructuralMeasures
p127
(dp128
g3
I1
sg4
(lp129
I10
aI8
aI8
aI10
aI8
aI6
aI1
asg6
I3
sg7
S'SurfaceDrainageWorksDitchesChannelsPipeworks'
p130
sg9
(lp131
(lp132
I0
aI0
aI8
aI4
aI6
aa(lp133
I8
aI6
aI2
aa(lp134
I8
aI8
aI6
aI4
aI0
aa(lp135
I0
aI6
aI8
aI8
aa(lp136
I6
aI6
aI6
aI6
aa(lp137
I8
aI8
aI8
aI4
aI0
aI0
aasba(i__main__
StructuralMeasures
p138
(dp139
g3
I2
sg4
(lp140
I10
aI8
aI8
aI10
aI8
aI6
aI1
asg6
I3
sg7
S'LocalRegradingToFacilitateRunOff'
p141
sg9
(lp142
(lp143
I0
aI0
aI8
aI4
aI6
aa(lp144
I8
aI6
aI2
aa(lp145
I8
aI8
aI6
aI4
aI0
aa(lp146
I2
aI6
aI8
aI8
aa(lp147
I6
aI6
aI8
aI8
aa(lp148
I8
aI8
aI8
aI4
aI0
aI0
aasba(i__main__
StructuralMeasures
p149
(dp150
g3
I3
sg4
(lp151
I10
aI8
aI6
aI10
aI8
aI6
aI1
asg6
I3
sg7
S'SealingTensionCracks'
p152
sg9
(lp153
(lp154
I0
aI0
aI8
aI4
aI0
aa(lp155
I8
aI6
aI2
aa(lp156
I8
aI8
aI6
aI4
aI0
aa(lp157
I2
aI6
aI8
aI8
aa(lp158
I6
aI6
aI8
aI8
aa(lp159
I8
aI8
aI8
aI4
aI0
aI0
aasba(i__main__
StructuralMeasures
p160
(dp161
g3
I4
sg4
(lp162
I10
aI8
aI8
aI10
aI8
aI6
aI1
asg6
I3
sg7
S'ImpermeabilizationGeoMembranesImperviousFacing'
p163
sg9
(lp164
(lp165
I0
aI0
aI8
aI4
aI0
aa(lp166
I8
aI6
aI2
aa(lp167
I8
aI8
aI6
aI4
aI0
aa(lp168
I2
aI6
aI8
aI8
aa(lp169
I6
aI6
aI8
aI8
aa(lp170
I8
aI8
aI8
aI4
aI0
aI0
aasba(i__main__
StructuralMeasures
p171
(dp172
g3
I5
sg4
(lp173
I6
aI6
aI6
aI8
aI8
aI6
aI1
asg6
I3
sg7
S'VegetationHydrologicalEffect'
p174
sg9
(lp175
(lp176
I0
aI0
aI8
aI0
aI6
aa(lp177
I8
aI6
aI0
aa(lp178
I8
aI8
aI6
aI2
aI0
aa(lp179
I2
aI6
aI8
aI8
aa(lp180
I8
aI8
aI6
aI6
aa(lp181
I8
aI8
aI6
aI4
aI0
aI0
aasba(i__main__
StructuralMeasures
p182
(dp183
g3
I6
sg4
(lp184
I8
aI8
aI4
aI6
aI8
aI6
aI1
asg6
I3
sg7
S'HydraulicControlWorksChannelLiningAndCheckDams'
p185
sg9
(lp186
(lp187
I0
aI0
aI8
aI0
aI8
aa(lp188
I8
aI8
aI0
aa(lp189
I8
aI8
aI8
aI6
aI4
aa(lp190
I0
aI0
aI6
aI8
aa(lp191
I6
aI6
aI8
aI8
aa(lp192
I6
aI6
aI8
aI8
aI10
aI8
aasba(i__main__
StructuralMeasures
p193
(dp194
g3
I7
sg4
(lp195
I6
aI6
aI6
aI6
aI8
aI6
aI1
asg6
I3
sg7
S'DiversionChannels'
p196
sg9
(lp197
(lp198
I6
aI6
aI8
aI6
aI6
aa(lp199
I8
aI8
aI8
aa(lp200
I0
aI0
aI4
aI6
aI10
aa(lp201
I8
aI8
aI8
aI8
aa(lp202
I8
aI8
aI8
aI8
aa(lp203
I6
aI6
aI6
aI8
aI8
aI8
aasba(i__main__
StructuralMeasures
p204
(dp205
g3
I1
sg4
(lp206
I8
aI7
aI10
aI7
aI8
aI8
aI1
asg6
I4
sg7
S'ShallowTrenchesFilledWithFreeDrainingMaterial'
p207
sg9
(lp208
(lp209
I0
aI0
aI6
aI0
aI4
aa(lp210
I8
aI6
aI0
aa(lp211
I8
aI8
aI4
aI0
aI0
aa(lp212
I0
aI8
aI8
aI8
aa(lp213
I2
aI6
aI2
aI0
aa(lp214
I8
aI8
aI0
aI0
aI0
aI0
aasba(i__main__
StructuralMeasures
p215
(dp216
g3
I2
sg4
(lp217
I8
aI7
aI8
aI6
aI6
aI8
aI1
asg6
I4
sg7
S'DeepTrenchesFilledWithFreeDrainingMaterial'
p218
sg9
(lp219
(lp220
I0
aI0
aI8
aI2
aI6
aa(lp221
I8
aI6
aI4
aa(lp222
I8
aI8
aI8
aI4
aI0
aa(lp223
I6
aI8
aI8
aI8
aa(lp224
I4
aI8
aI4
aI0
aa(lp225
I6
aI6
aI0
aI0
aI0
aI0
aasba(i__main__
StructuralMeasures
p226
(dp227
g3
I3
sg4
(lp228
I7
aI6
aI8
aI6
aI8
aI8
aI1
asg6
I4
sg7
S'SubHorizontalDrainsConventionalDrilling'
p229
sg9
(lp230
(lp231
I2
aI2
aI6
aI2
aI4
aa(lp232
I4
aI8
aI4
aa(lp233
I0
aI2
aI6
aI6
aI4
aa(lp234
I2
aI6
aI8
aI8
aa(lp235
I4
aI6
aI8
aI0
aa(lp236
I4
aI4
aI0
aI0
aI0
aI0
aasba(i__main__
StructuralMeasures
p237
(dp238
g3
I4
sg4
(lp239
I6
aI6
aI6
aI7
aI8
aI8
aI1
asg6
I4
sg7
S'SubHorizontalDrainsDirectionalDrilling'
p240
sg9
(lp241
(lp242
I2
aI2
aI6
aI4
aI4
aa(lp243
I4
aI8
aI4
aa(lp244
I0
aI0
aI6
aI8
aI8
aa(lp245
I2
aI6
aI8
aI8
aa(lp246
I4
aI6
aI8
aI0
aa(lp247
I4
aI4
aI0
aI0
aI0
aI0
aasba(i__main__
StructuralMeasures
p248
(dp249
g3
I5
sg4
(lp250
I0
aI0
aI0
aI0
aI0
aI0
aI0
asg6
I4
sg7
S'Wells'
p251
sg9
(lp252
(lp253
I0
aI0
aI0
aI0
aI0
aa(lp254
I0
aI0
aI0
aa(lp255
I0
aI0
aI0
aI0
aI0
aa(lp256
I0
aI0
aI0
aI0
aa(lp257
I0
aI0
aI0
aI0
aa(lp258
I0
aI0
aI0
aI0
aI0
aI0
aasba(i__main__
StructuralMeasures
p259
(dp260
g3
I5
sg4
(lp261
I0
aI0
aI0
aI0
aI0
aI0
aI0
asg6
I4
sg7
S'SmallAndMediumDiameterVerticalWells'
p262
sg9
(lp263
(lp264
I0
aI0
aI0
aI0
aI0
aa(lp265
I0
aI0
aI0
aa(lp266
I0
aI0
aI0
aI0
aI0
aa(lp267
I0
aI0
aI0
aI0
aa(lp268
I0
aI0
aI0
aI0
aa(lp269
I0
aI0
aI0
aI0
aI0
aI0
aasba(i__main__
StructuralMeasures
p270
(dp271
g3
I5
sg4
(lp272
I8
aI7
aI7
aI7
aI8
aI4
aI1
asg6
I4
sg7
S'ReliefOfArtesianPressure'
p273
sg9
(lp274
(lp275
I0
aI0
aI4
aI2
aI4
aa(lp276
I8
aI4
aI4
aa(lp277
I0
aI6
aI8
aI8
aI6
aa(lp278
I0
aI4
aI8
aI8
aa(lp279
I2
aI0
aI0
aI0
aa(lp280
I2
aI2
aI0
aI0
aI0
aI0
aasba(i__main__
StructuralMeasures
p281
(dp282
g3
I5
sg4
(lp283
I6
aI6
aI7
aI7
aI8
aI4
aI1
asg6
I4
sg7
S'UnderDrainageOfPerchedAquifer'
p284
sg9
(lp285
(lp286
I2
aI2
aI6
aI0
aI0
aa(lp287
I6
aI8
aI4
aa(lp288
I0
aI4
aI6
aI4
aI4
aa(lp289
I0
aI4
aI8
aI8
aa(lp290
I0
aI8
aI0
aI0
aa(lp291
I2
aI2
aI0
aI0
aI0
aI0
aasba(i__main__
StructuralMeasures
p292
(dp293
g3
I5
sg4
(lp294
I7
aI6
aI6
aI7
aI8
aI4
aI1
asg6
I4
sg7
S'Pumps'
p295
sg9
(lp296
(lp297
I0
aI0
aI5
aI3
aI0
aa(lp298
I5
aI6
aI4
aa(lp299
I0
aI0
aI5
aI8
aI8
aa(lp300
I0
aI2
aI8
aI8
aa(lp301
I6
aI8
aI6
aI0
aa(lp302
I2
aI2
aI0
aI0
aI0
aI0
aasba(i__main__
StructuralMeasures
p303
(dp304
g3
I5
sg4
(lp305
I5
aI6
aI4
aI7
aI8
aI4
aI1
asg6
I4
sg7
S'Siphons'
p306
sg9
(lp307
(lp308
I0
aI0
aI6
aI2
aI0
aa(lp309
I6
aI6
aI4
aa(lp310
I0
aI4
aI6
aI8
aI4
aa(lp311
I0
aI2
aI8
aI8
aa(lp312
I6
aI8
aI6
aI0
aa(lp313
I2
aI2
aI0
aI0
aI0
aI0
aasba(i__main__
StructuralMeasures
p314
(dp315
g3
I5
sg4
(lp316
I8
aI7
aI6
aI6
aI8
aI6
aI1
asg6
I4
sg7
S'MediumDiameterVerticalWells'
p317
sg9
(lp318
(lp319
I0
aI0
aI6
aI4
aI2
aa(lp320
I8
aI6
aI2
aa(lp321
I0
aI0
aI2
aI8
aI4
aa(lp322
I0
aI2
aI8
aI8
aa(lp323
I4
aI8
aI6
aI0
aa(lp324
I2
aI2
aI0
aI0
aI0
aI0
aasba(i__main__
StructuralMeasures
p325
(dp326
g3
I5
sg4
(lp327
I8
aI7
aI6
aI6
aI8
aI6
aI1
asg6
I4
sg7
S'LargeDiameterVerticalWells'
p328
sg9
(lp329
(lp330
I0
aI0
aI6
aI4
aI2
aa(lp331
I8
aI6
aI2
aa(lp332
I0
aI0
aI2
aI8
aI4
aa(lp333
I0
aI2
aI8
aI8
aa(lp334
I4
aI8
aI6
aI9
aa(lp335
I2
aI2
aI0
aI0
aI0
aI0
aasba(i__main__
StructuralMeasures
p336
(dp337
g3
I5
sg4
(lp338
I7
aI7
aI6
aI7
aI4
aI8
aI1
asg6
I4
sg7
S'CaissonWithGravityDrainageAndSecondarySubhorizontalDrains'
p339
sg9
(lp340
(lp341
I0
aI0
aI6
aI6
aI4
aa(lp342
I8
aI6
aI2
aa(lp343
I0
aI0
aI0
aI6
aI8
aa(lp344
I0
aI2
aI8
aI8
aa(lp345
I4
aI8
aI6
aI0
aa(lp346
I2
aI2
aI0
aI0
aI0
aI0
aasba(i__main__
StructuralMeasures
p347
(dp348
g3
I6
sg4
(lp349
I7
aI7
aI6
aI6
aI6
aI8
aI1
asg6
I4
sg7
S'DrainageTunnelsAditsGalleriesWithSecondaryDrainsOrAsOutletForWells'
p350
sg9
(lp351
(lp352
I2
aI4
aI6
aI6
aI6
aa(lp353
I6
aI6
aI6
aa(lp354
I0
aI0
aI2
aI6
aI8
aa(lp355
I4
aI8
aI8
aI8
aa(lp356
I6
aI8
aI8
aI0
aa(lp357
I0
aI0
aI0
aI0
aI0
aI0
aasba(i__main__
StructuralMeasures
p358
(dp359
g3
I1
sg4
(lp360
I8
aI8
aI8
aI8
aI10
aI8
aI1
asg6
I5
sg7
S'VegetationMechanicalEffects'
p361
sg9
(lp362
(lp363
I0
aI0
aI4
aI0
aI0
aa(lp364
I8
aI4
aI2
aa(lp365
I8
aI4
aI0
aI0
aI0
aa(lp366
I2
aI6
aI8
aI8
aa(lp367
I8
aI8
aI4
aI2
aa(lp368
I8
aI8
aI6
aI4
aI0
aI4
aasba(i__main__
StructuralMeasures
p369
(dp370
g3
I2
sg4
(lp371
I8
aI8
aI10
aI8
aI10
aI8
aI1
asg6
I5
sg7
S'Substitution'
p372
sg9
(lp373
(lp374
I0
aI0
aI8
aI0
aI0
aa(lp375
I8
aI6
aI8
aa(lp376
I8
aI6
aI8
aI4
aI0
aa(lp377
I0
aI2
aI6
aI10
aa(lp378
I2
aI4
aI8
aI10
aa(lp379
I8
aI8
aI8
aI2
aI0
aI0
aasba(i__main__
StructuralMeasures
p380
(dp381
g3
I3
sg4
(lp382
I6
aI4
aI8
aI8
aI10
aI7
aI1
asg6
I5
sg7
S'CompactionFromSurface'
p383
sg9
(lp384
(lp385
I0
aI0
aI4
aI0
aI0
aa(lp386
I6
aI4
aI0
aa(lp387
I6
aI2
aI0
aI0
aI0
aa(lp388
I0
aI0
aI2
aI8
aa(lp389
I0
aI2
aI8
aI8
aa(lp390
I6
aI6
aI2
aI0
aI0
aI0
aasba(i__main__
StructuralMeasures
p391
(dp392
g3
I4
sg4
(lp393
I6
aI8
aI6
aI6
aI9
aI6
aI1
asg6
I5
sg7
S'DeepCompaction'
p394
sg9
(lp395
(lp396
I0
aI0
aI6
aI4
aI4
aa(lp397
I8
aI4
aI0
aa(lp398
I0
aI0
aI8
aI8
aI6
aa(lp399
I0
aI0
aI2
aI8
aa(lp400
I0
aI8
aI6
aI6
aa(lp401
I8
aI8
aI8
aI2
aI0
aI0
aasba(i__main__
StructuralMeasures
p402
(dp403
g3
I5
sg4
(lp404
I6
aI8
aI6
aI6
aI8
aI8
aI1
asg6
I5
sg7
S'MechanicalDeepMixingWithLimeAndOrCement'
p405
sg9
(lp406
(lp407
I0
aI0
aI6
aI4
aI4
aa(lp408
I8
aI4
aI0
aa(lp409
I0
aI4
aI8
aI8
aI6
aa(lp410
I0
aI2
aI6
aI8
aa(lp411
I6
aI8
aI8
aI8
aa(lp412
I8
aI8
aI8
aI2
aI2
aI2
aasba(i__main__
StructuralMeasures
p413
(dp414
g3
I6
sg4
(lp415
I6
aI6
aI6
aI6
aI6
aI6
aI1
asg6
I5
sg7
S'LowPressureGroutingWithCementitiousOrChemicalBinder'
p416
sg9
(lp417
(lp418
I6
aI4
aI6
aI6
aI4
aa(lp419
I6
aI8
aI6
aa(lp420
I0
aI4
aI6
aI8
aI8
aa(lp421
I0
aI0
aI2
aI8
aa(lp422
I0
aI6
aI8
aI8
aa(lp423
I8
aI8
aI6
aI0
aI0
aI0
aasba(i__main__
StructuralMeasures
p424
(dp425
g3
I7
sg4
(lp426
I6
aI6
aI5
aI5
aI6
aI8
aI1
asg6
I5
sg7
S'JetGrouting'
p427
sg9
(lp428
(lp429
I0
aI0
aI6
aI4
aI4
aa(lp430
I6
aI8
aI0
aa(lp431
I0
aI0
aI6
aI8
aI8
aa(lp432
I0
aI2
aI6
aI8
aa(lp433
I6
aI8
aI8
aI8
aa(lp434
I8
aI8
aI8
aI2
aI2
aI2
aasba(i__main__
StructuralMeasures
p435
(dp436
g3
I8
sg4
(lp437
I4
aI4
aI4
aI8
aI7
aI6
aI1
asg6
I5
sg7
S'ModificationOfGroundWaterChemistry'
p438
sg9
(lp439
(lp440
I0
aI0
aI6
aI4
aI4
aa(lp441
I6
aI0
aI0
aa(lp442
I0
aI4
aI8
aI8
aI8
aa(lp443
I0
aI0
aI6
aI8
aa(lp444
I0
aI8
aI4
aI0
aa(lp445
I6
aI6
aI0
aI0
aI0
aI0
aasba(i__main__
StructuralMeasures
p446
(dp447
g3
I1
sg4
(lp448
I8
aI8
aI6
aI6
aI8
aI6
aI1
asg6
I6
sg7
S'CounterfortDrains'
p449
sg9
(lp450
(lp451
I0
aI0
aI8
aI0
aI0
aa(lp452
I8
aI4
aI0
aa(lp453
I8
aI8
aI4
aI0
aI0
aa(lp454
I0
aI4
aI8
aI8
aa(lp455
I4
aI8
aI6
aI2
aa(lp456
I6
aI6
aI4
aI2
aI0
aI0
aasba(i__main__
StructuralMeasures
p457
(dp458
g3
I2
sg4
(lp459
I10
aI8
aI5
aI6
aI6
aI8
aI1
asg6
I6
sg7
S'Piles'
p460
sg9
(lp461
(lp462
I0
aI0
aI8
aI4
aI4
aa(lp463
I8
aI8
aI0
aa(lp464
I0
aI4
aI8
aI4
aI0
aa(lp465
I0
aI4
aI8
aI8
aa(lp466
I2
aI6
aI8
aI8
aa(lp467
I8
aI8
aI8
aI8
aI2
aI2
aasba(i__main__
StructuralMeasures
p468
(dp469
g3
I3
sg4
(lp470
I10
aI8
aI6
aI6
aI6
aI8
aI1
asg6
I6
sg7
S'BarrettesDiaphragmWalls'
p471
sg9
(lp472
(lp473
I0
aI0
aI8
aI4
aI4
aa(lp474
I8
aI8
aI0
aa(lp475
I0
aI0
aI6
aI8
aI4
aa(lp476
I0
aI2
aI6
aI8
aa(lp477
I2
aI6
aI8
aI8
aa(lp478
I8
aI8
aI8
aI2
aI2
aI2
aasba(i__main__
StructuralMeasures
p479
(dp480
g3
I4
sg4
(lp481
I8
aI8
aI6
aI6
aI4
aI8
aI1
asg6
I6
sg7
S'CaissonsMechanicalEffects'
p482
sg9
(lp483
(lp484
I0
aI0
aI8
aI4
aI4
aa(lp485
I8
aI8
aI0
aa(lp486
I0
aI0
aI4
aI6
aI8
aa(lp487
I0
aI2
aI6
aI8
aa(lp488
I2
aI6
aI8
aI8
aa(lp489
I8
aI8
aI6
aI2
aI0
aI0
aasba(i__main__
StructuralMeasures
p490
(dp491
g3
I5
sg4
(lp492
I6
aI6
aI6
aI6
aI6
aI8
aI1
asg6
I6
sg7
S'SoilNails'
p493
sg9
(lp494
(lp495
I6
aI6
aI8
aI0
aI0
aa(lp496
I8
aI6
aI0
aa(lp497
I8
aI8
aI6
aI0
aI0
aa(lp498
I0
aI2
aI8
aI10
aa(lp499
I0
aI2
aI4
aI10
aa(lp500
I8
aI8
aI4
aI2
aI0
aI0
aasba(i__main__
StructuralMeasures
p501
(dp502
g3
I6
sg4
(lp503
I8
aI8
aI6
aI6
aI6
aI6
aI1
asg6
I6
sg7
S'DowelsAndHarnessing'
p504
sg9
(lp505
(lp506
I8
aI2
aI0
aI0
aI0
aa(lp507
I0
aI0
aI8
aa(lp508
I8
aI2
aI0
aI0
aI0
aa(lp509
I0
aI0
aI0
aI8
aa(lp510
I0
aI6
aI6
aI6
aa(lp511
I8
aI8
aI6
aI0
aI0
aI0
aasba(i__main__
StructuralMeasures
p512
(dp513
g3
I7
sg4
(lp514
I8
aI8
aI8
aI6
aI8
aI8
aI1
asg6
I6
sg7
S'RockBolting'
p515
sg9
(lp516
(lp517
I8
aI8
aI0
aI0
aI0
aa(lp518
I0
aI0
aI8
aa(lp519
I6
aI8
aI6
aI0
aI0
aa(lp520
I0
aI0
aI0
aI8
aa(lp521
I0
aI6
aI8
aI8
aa(lp522
I8
aI8
aI6
aI0
aI0
aI0
aasba(i__main__
StructuralMeasures
p523
(dp524
g3
I8
sg4
(lp525
I6
aI6
aI6
aI6
aI6
aI6
aI1
asg6
I6
sg7
S'StrandAnchors'
p526
sg9
(lp527
(lp528
I6
aI8
aI8
aI0
aI0
aa(lp529
I8
aI6
aI8
aa(lp530
I0
aI2
aI6
aI8
aI8
aa(lp531
I0
aI0
aI4
aI8
aa(lp532
I2
aI6
aI8
aI8
aa(lp533
I8
aI8
aI8
aI2
aI0
aI0
aasba(i__main__
StructuralMeasures
p534
(dp535
g3
I1
sg4
(lp536
I8
aI8
aI6
aI8
aI8
aI8
aI1
asg6
I7
sg7
S'ReinforcedSoilStructure'
p537
sg9
(lp538
(lp539
I0
aI2
aI8
aI0
aI0
aa(lp540
I8
aI6
aI4
aa(lp541
I0
aI4
aI8
aI6
aI2
aa(lp542
I0
aI4
aI8
aI8
aa(lp543
I8
aI8
aI8
aI8
aa(lp544
I6
aI6
aI6
aI4
aI0
aI2
aasba(i__main__
StructuralMeasures
p545
(dp546
g3
I2
sg4
(lp547
I8
aI8
aI8
aI8
aI8
aI8
aI1
asg6
I7
sg7
S'GabionWalls'
p548
sg9
(lp549
(lp550
I0
aI2
aI8
aI0
aI0
aa(lp551
I8
aI6
aI4
aa(lp552
I4
aI8
aI8
aI2
aI0
aa(lp553
I0
aI4
aI8
aI8
aa(lp554
I8
aI8
aI8
aI8
aa(lp555
I6
aI6
aI6
aI6
aI0
aI6
aasba(i__main__
StructuralMeasures
p556
(dp557
g3
I3
sg4
(lp558
I8
aI8
aI8
aI8
aI8
aI6
aI1
asg6
I7
sg7
S'CribWalls'
p559
sg9
(lp560
(lp561
I0
aI2
aI8
aI0
aI0
aa(lp562
I8
aI6
aI4
aa(lp563
I0
aI8
aI8
aI2
aI0
aa(lp564
I0
aI4
aI8
aI8
aa(lp565
I8
aI8
aI8
aI8
aa(lp566
I6
aI6
aI6
aI0
aI0
aI0
aasba(i__main__
StructuralMeasures
p567
(dp568
g3
I4
sg4
(lp569
I6
aI4
aI6
aI8
aI8
aI6
aI1
asg6
I7
sg7
S'DrystackMasonryWalls'
p570
sg9
(lp571
(lp572
I0
aI0
aI4
aI0
aI0
aa(lp573
I8
aI6
aI4
aa(lp574
I8
aI8
aI2
aI0
aI0
aa(lp575
I0
aI0
aI6
aI8
aa(lp576
I8
aI8
aI8
aI8
aa(lp577
I6
aI6
aI6
aI0
aI0
aI0
aasba(i__main__
StructuralMeasures
p578
(dp579
g3
I5
sg4
(lp580
I8
aI6
aI6
aI8
aI8
aI6
aI1
asg6
I7
sg7
S'MassConcreteOrMasonryWalls'
p581
sg9
(lp582
(lp583
I0
aI0
aI6
aI0
aI0
aa(lp584
I8
aI6
aI4
aa(lp585
I0
aI8
aI6
aI0
aI0
aa(lp586
I0
aI0
aI6
aI8
aa(lp587
I8
aI8
aI8
aI8
aa(lp588
I6
aI6
aI6
aI6
aI4
aI6
aasba(i__main__
StructuralMeasures
p589
(dp590
g3
I6
sg4
(lp591
I8
aI6
aI8
aI8
aI8
aI8
aI1
asg6
I7
sg7
S'ReinforcedConcreteStemWalls'
p592
sg9
(lp593
(lp594
I0
aI0
aI6
aI0
aI0
aa(lp595
I8
aI6
aI4
aa(lp596
I0
aI8
aI6
aI0
aI0
aa(lp597
I0
aI0
aI6
aI8
aa(lp598
I8
aI8
aI8
aI8
aa(lp599
I6
aI6
aI6
aI6
aI4
aI6
aasba(i__main__
StructuralMeasures
p600
(dp601
g3
I1
sg4
(lp602
I8
aI6
aI8
aI8
aI7
aI8
aI4
asg6
I8
sg7
S'DeflectionStructure'
p603
sg9
(lp604
(lp605
I6
aI6
aI0
aI0
aI10
aa(lp606
I8
aI10
aI10
aa(lp607
I8
aI8
aI8
aI8
aI8
aa(lp608
I7
aI8
aI9
aI9
aa(lp609
I8
aI8
aI8
aI8
aa(lp610
I8
aI8
aI8
aI8
aI8
aI8
aasba(i__main__
StructuralMeasures
p611
(dp612
g3
I2
sg4
(lp613
I8
aI6
aI8
aI8
aI7
aI8
aI4
asg6
I8
sg7
S'DebrisFlowRockFallShed'
p614
sg9
(lp615
(lp616
I10
aI10
aI6
aI6
aI10
aa(lp617
I8
aI10
aI10
aa(lp618
I8
aI8
aI8
aI8
aI8
aa(lp619
I7
aI8
aI9
aI9
aa(lp620
I8
aI8
aI8
aI8
aa(lp621
I8
aI8
aI8
aI8
aI8
aI8
aasba(i__main__
StructuralMeasures
p622
(dp623
g3
I1
sg4
(lp624
I6
aI4
aI6
aI6
aI6
aI5
aI4
asg6
I9
sg7
S'DropStructure'
p625
sg9
(lp626
(lp627
I8
aI8
aI8
aI8
aI8
aa(lp628
I8
aI8
aI8
aa(lp629
I8
aI8
aI8
aI8
aI8
aa(lp630
I6
aI8
aI8
aI8
aa(lp631
I8
aI8
aI8
aI8
aa(lp632
I8
aI8
aI8
aI8
aI8
aI8
aasba(i__main__
StructuralMeasures
p633
(dp634
g3
I2
sg4
(lp635
I8
aI6
aI8
aI7
aI6
aI6
aI3
asg6
I9
sg7
S'DebrisRestrainingStructure'
p636
sg9
(lp637
(lp638
I6
aI6
aI6
aI6
aI6
aa(lp639
I6
aI6
aI6
aa(lp640
I6
aI6
aI6
aI6
aI6
aa(lp641
I8
aI6
aI6
aI6
aa(lp642
I6
aI6
aI6
aI6
aa(lp643
I6
aI6
aI6
aI6
aI6
aI6
aasba(i__main__
StructuralMeasures
p644
(dp645
g3
I3
sg4
(lp646
I8
aI4
aI5
aI5
aI8
aI4
aI3
asg6
I9
sg7
S'DebrisFlowsImpediments'
p647
sg9
(lp648
(lp649
I5
aI5
aI0
aI0
aI5
aa(lp650
I3
aI5
aI5
aa(lp651
I6
aI6
aI3
aI1
aI0
aa(lp652
I5
aI7
aI8
aI8
aa(lp653
I6
aI6
aI6
aI6
aa(lp654
I6
aI6
aI6
aI6
aI6
aI6
aasba(i__main__
StructuralMeasures
p655
(dp656
g3
I1
sg4
(lp657
I7
aI5
aI5
aI5
aI6
aI6
aI4
asg6
I10
sg7
S'DebrisResistingBarrier'
p658
sg9
(lp659
(lp660
I8
aI8
aI3
aI8
aI8
aa(lp661
I3
aI8
aI8
aa(lp662
I8
aI8
aI8
aI6
aI6
aa(lp663
I8
aI8
aI8
aI8
aa(lp664
I8
aI8
aI8
aI8
aa(lp665
I8
aI8
aI8
aI8
aI8
aI8
aasba(i__main__
StructuralMeasures
p666
(dp667
g3
I2
sg4
(lp668
I5
aI5
aI5
aI7
aI7
aI7
aI7
asg6
I10
sg7
S'RockFallBarrier'
p669
sg9
(lp670
(lp671
I10
aI8
aI0
aI0
aI0
aa(lp672
I0
aI2
aI10
aa(lp673
I8
aI8
aI8
aI5
aI2
aa(lp674
I8
aI8
aI8
aI8
aa(lp675
I8
aI8
aI8
aI8
aa(lp676
I8
aI8
aI8
aI8
aI8
aI8
aasba(i__main__
StructuralMeasures
p677
(dp678
g3
I3
sg4
(lp679
I8
aI6
aI6
aI7
aI4
aI5
aI7
asg6
I10
sg7
S'RockFallNet'
p680
sg9
(lp681
(lp682
I10
aI8
aI0
aI0
aI0
aa(lp683
I0
aI0
aI10
aa(lp684
I9
aI8
aI5
aI3
aI1
aa(lp685
I8
aI8
aI8
aI8
aa(lp686
I8
aI8
aI8
aI8
aa(lp687
I8
aI8
aI8
aI8
aI8
aI8
aasba(i__main__
StructuralMeasures
p688
(dp689
g3
I4
sg4
(lp690
I7
aI7
aI5
aI5
aI6
aI8
aI4
asg6
I10
sg7
S'DebrisRetentionBasin'
p691
sg9
(lp692
(lp693
I7
aI7
aI5
aI5
aI8
aa(lp694
I7
aI8
aI8
aa(lp695
I8
aI8
aI8
aI8
aI6
aa(lp696
I8
aI8
aI8
aI8
aa(lp697
I8
aI8
aI8
aI8
aa(lp698
I8
aI8
aI8
aI8
aI8
aI8
aasba.