(lp0
S'SurfaceProtectionAndControlOfSurfaceErosion'
p1
aS'ModifyingTheSlopeGeometryMassDistribution'
p2
aS'ModifyingSurfaceWaterRegimeSurfaceDrainage'
p3
aS'ModifyingGroundwaterRegimeDeepDrainage'
p4
aS'ModifyingTheMechanicalCharacteristicsOfUnstableMass'
p5
aS'TransferOfLoadsToMoreCompetentStrata'
p6
aS'RetainingStructures'
p7
aS'DeviatingThePathOfLandslideDebris'
p8
aS'DissipatingTheEnergyOfDebrisFlows'
p9
aS'ArrestingAndContainingLandslideDebrisOrRockFall'
p10
a.